; Function Attrs: nounwind uwtable
define void @Cbs3_ManStop(ptr noundef captures(none) initializes((144, 152), (160, 168), (176, 184)) %0) local_unnamed_addr #2 {
  %2 = getelementptr inbounds nuw i8, ptr %0, i64 144
  %3 = getelementptr inbounds nuw i8, ptr %0, i64 152
  %4 = load ptr, ptr %3, align 8, !tbaa !33
  %.not.i = icmp eq ptr %4, null
  br i1 %.not.i, label %Vec_IntErase.exit, label %5

5:                                                ; preds = %1
  tail call void @free(ptr noundef nonnull %4) #25
  store ptr null, ptr %3, align 8, !tbaa !33
  br label %Vec_IntErase.exit

Vec_IntErase.exit:                                ; preds = %1, %5
  %6 = getelementptr inbounds nuw i8, ptr %0, i64 148
  store i32 0, ptr %6, align 4, !tbaa !31
  store i32 0, ptr %2, align 8, !tbaa !32
  %7 = getelementptr inbounds nuw i8, ptr %0, i64 160
  %8 = getelementptr inbounds nuw i8, ptr %0, i64 168
  %9 = load ptr, ptr %8, align 8, !tbaa !33
  %.not.i29 = icmp eq ptr %9, null
  br i1 %.not.i29, label %Vec_IntErase.exit30, label %10

10:                                               ; preds = %Vec_IntErase.exit
  tail call void @free(ptr noundef nonnull %9) #25
  store ptr null, ptr %8, align 8, !tbaa !33
  br label %Vec_IntErase.exit30

Vec_IntErase.exit30:                              ; preds = %Vec_IntErase.exit, %10
  %11 = getelementptr inbounds nuw i8, ptr %0, i64 164
  store i32 0, ptr %11, align 4, !tbaa !31
  store i32 0, ptr %7, align 8, !tbaa !32
  %12 = getelementptr inbounds nuw i8, ptr %0, i64 176
  %13 = getelementptr inbounds nuw i8, ptr %0, i64 184
  %14 = load ptr, ptr %13, align 8, !tbaa !33
  %.not.i31 = icmp eq ptr %14, null
  br i1 %.not.i31, label %Vec_IntErase.exit32, label %15

15:                                               ; preds = %Vec_IntErase.exit30
  tail call void @free(ptr noundef nonnull %14) #25
  store ptr null, ptr %13, align 8, !tbaa !33
  br label %Vec_IntErase.exit32

Vec_IntErase.exit32:                              ; preds = %Vec_IntErase.exit30, %15
  %16 = getelementptr inbounds nuw i8, ptr %0, i64 180
  store i32 0, ptr %16, align 4, !tbaa !31
  store i32 0, ptr %12, align 8, !tbaa !32
  %17 = getelementptr inbounds nuw i8, ptr %0, i64 192
  %18 = load i32, ptr %17, align 8, !tbaa !39
  %19 = icmp sgt i32 %18, 0
  %20 = getelementptr inbounds nuw i8, ptr %0, i64 200
  %.pre.i = load ptr, ptr %20, align 8, !tbaa !40
  br i1 %19, label %.lr.ph.i, label %._crit_edge.i

.lr.ph.i:                                         ; preds = %Vec_IntErase.exit32, %28
  %21 = phi i32 [ %29, %28 ], [ %18, %Vec_IntErase.exit32 ]
  %22 = phi ptr [ %30, %28 ], [ %.pre.i, %Vec_IntErase.exit32 ]
  %indvars.iv.i = phi i64 [ %indvars.iv.next.i, %28 ], [ 0, %Vec_IntErase.exit32 ]
  %23 = getelementptr inbounds nuw %struct.Vec_Int_t_, ptr %22, i64 %indvars.iv.i, i32 2
  %24 = load ptr, ptr %23, align 8, !tbaa !33
  %.not15.i = icmp eq ptr %24, null
  br i1 %.not15.i, label %28, label %25

25:                                               ; preds = %.lr.ph.i
  tail call void @free(ptr noundef nonnull %24) #25
  %26 = load ptr, ptr %20, align 8, !tbaa !40
  %27 = getelementptr inbounds nuw %struct.Vec_Int_t_, ptr %26, i64 %indvars.iv.i, i32 2
  store ptr null, ptr %27, align 8, !tbaa !33
  %.pre18.i = load i32, ptr %17, align 8, !tbaa !39
  br label %28

28:                                               ; preds = %25, %.lr.ph.i
  %29 = phi i32 [ %.pre18.i, %25 ], [ %21, %.lr.ph.i ]
  %30 = phi ptr [ %26, %25 ], [ %22, %.lr.ph.i ]
  %indvars.iv.next.i = add nuw nsw i64 %indvars.iv.i, 1
  %31 = sext i32 %29 to i64
  %32 = icmp slt i64 %indvars.iv.next.i, %31
  br i1 %32, label %.lr.ph.i, label %._crit_edge.thread.i, !llvm.loop !49

._crit_edge.i:                                    ; preds = %Vec_IntErase.exit32
  %.not.i33 = icmp eq ptr %.pre.i, null
  br i1 %.not.i33, label %Vec_WecErase.exit, label %._crit_edge.thread.i

._crit_edge.thread.i:                             ; preds = %28, %._crit_edge.i
  %33 = phi ptr [ %.pre.i, %._crit_edge.i ], [ %30, %28 ]
  tail call void @free(ptr noundef nonnull %33) #25
  store ptr null, ptr %20, align 8, !tbaa !40
  br label %Vec_WecErase.exit

Vec_WecErase.exit:                                ; preds = %._crit_edge.i, %._crit_edge.thread.i
  %34 = getelementptr inbounds nuw i8, ptr %0, i64 196
  store i32 0, ptr %34, align 4, !tbaa !38
  store i32 0, ptr %17, align 8, !tbaa !39
  %35 = getelementptr inbounds nuw i8, ptr %0, i64 208
  %36 = getelementptr inbounds nuw i8, ptr %0, i64 216
  %37 = load ptr, ptr %36, align 8, !tbaa !44
  %.not.i34 = icmp eq ptr %37, null
  br i1 %.not.i34, label %Vec_StrErase.exit, label %38

38:                                               ; preds = %Vec_WecErase.exit
  tail call void @free(ptr noundef nonnull %37) #25
  store ptr null, ptr %36, align 8, !tbaa !44
  br label %Vec_StrErase.exit

Vec_StrErase.exit:                                ; preds = %Vec_WecErase.exit, %38
  %39 = getelementptr inbounds nuw i8, ptr %0, i64 212
  store i32 0, ptr %39, align 4, !tbaa !45
  store i32 0, ptr %35, align 8, !tbaa !43
  %40 = getelementptr inbounds nuw i8, ptr %0, i64 224
  %41 = getelementptr inbounds nuw i8, ptr %0, i64 232
  %42 = load ptr, ptr %41, align 8, !tbaa !44
  %.not.i35 = icmp eq ptr %42, null
  br i1 %.not.i35, label %Vec_StrErase.exit36, label %43

43:                                               ; preds = %Vec_StrErase.exit
  tail call void @free(ptr noundef nonnull %42) #25
  store ptr null, ptr %41, align 8, !tbaa !44
  br label %Vec_StrErase.exit36

Vec_StrErase.exit36:                              ; preds = %Vec_StrErase.exit, %43
  %44 = getelementptr inbounds nuw i8, ptr %0, i64 228
  store i32 0, ptr %44, align 4, !tbaa !45
  store i32 0, ptr %40, align 8, !tbaa !43
  %45 = getelementptr inbounds nuw i8, ptr %0, i64 240
  %46 = getelementptr inbounds nuw i8, ptr %0, i64 248
  %47 = load ptr, ptr %46, align 8, !tbaa !33
  %.not.i37 = icmp eq ptr %47, null
  br i1 %.not.i37, label %Vec_IntErase.exit38, label %48

48:                                               ; preds = %Vec_StrErase.exit36
  tail call void @free(ptr noundef nonnull %47) #25
  store ptr null, ptr %46, align 8, !tbaa !33
  br label %Vec_IntErase.exit38

Vec_IntErase.exit38:                              ; preds = %Vec_StrErase.exit36, %48
  %49 = getelementptr inbounds nuw i8, ptr %0, i64 244
  store i32 0, ptr %49, align 4, !tbaa !31
  store i32 0, ptr %45, align 8, !tbaa !32
  %50 = getelementptr inbounds nuw i8, ptr %0, i64 256
  %51 = getelementptr inbounds nuw i8, ptr %0, i64 264
  %52 = load ptr, ptr %51, align 8, !tbaa !33
  %.not.i39 = icmp eq ptr %52, null
  br i1 %.not.i39, label %Vec_IntErase.exit40, label %53

53:                                               ; preds = %Vec_IntErase.exit38
  tail call void @free(ptr noundef nonnull %52) #25
  store ptr null, ptr %51, align 8, !tbaa !33
  br label %Vec_IntErase.exit40

Vec_IntErase.exit40:                              ; preds = %Vec_IntErase.exit38, %53
  %54 = getelementptr inbounds nuw i8, ptr %0, i64 260
  store i32 0, ptr %54, align 4, !tbaa !31
  store i32 0, ptr %50, align 8, !tbaa !32
  %55 = getelementptr inbounds nuw i8, ptr %0, i64 272
  %56 = getelementptr inbounds nuw i8, ptr %0, i64 280
  %57 = load ptr, ptr %56, align 8, !tbaa !33
  %.not.i41 = icmp eq ptr %57, null
  br i1 %.not.i41, label %Vec_IntErase.exit42, label %58

58:                                               ; preds = %Vec_IntErase.exit40
  tail call void @free(ptr noundef nonnull %57) #25
  store ptr null, ptr %56, align 8, !tbaa !33
  br label %Vec_IntErase.exit42

Vec_IntErase.exit42:                              ; preds = %Vec_IntErase.exit40, %58
  %59 = getelementptr inbounds nuw i8, ptr %0, i64 276
  store i32 0, ptr %59, align 4, !tbaa !31
  store i32 0, ptr %55, align 8, !tbaa !32
  %60 = getelementptr inbounds nuw i8, ptr %0, i64 288
  %61 = getelementptr inbounds nuw i8, ptr %0, i64 296
  %62 = load ptr, ptr %61, align 8, !tbaa !33
  %.not.i43 = icmp eq ptr %62, null
  br i1 %.not.i43, label %Vec_IntErase.exit44, label %63

63:                                               ; preds = %Vec_IntErase.exit42
  tail call void @free(ptr noundef nonnull %62) #25
  store ptr null, ptr %61, align 8, !tbaa !33
  br label %Vec_IntErase.exit44

Vec_IntErase.exit44:                              ; preds = %Vec_IntErase.exit42, %63
  %64 = getelementptr inbounds nuw i8, ptr %0, i64 292
  store i32 0, ptr %64, align 4, !tbaa !31
  store i32 0, ptr %60, align 8, !tbaa !32
  %65 = getelementptr inbounds nuw i8, ptr %0, i64 112
  %66 = load ptr, ptr %65, align 8, !tbaa !34
  %67 = getelementptr inbounds nuw i8, ptr %66, i64 8
  %68 = load ptr, ptr %67, align 8, !tbaa !33
  %.not.i45 = icmp eq ptr %68, null
  br i1 %.not.i45, label %Vec_IntFree.exit, label %69

69:                                               ; preds = %Vec_IntErase.exit44
  tail call void @free(ptr noundef nonnull %68) #25
  br label %Vec_IntFree.exit

Vec_IntFree.exit:                                 ; preds = %Vec_IntErase.exit44, %69
  tail call void @free(ptr noundef nonnull %66) #25
  %70 = getelementptr inbounds nuw i8, ptr %0, i64 120
  %71 = load ptr, ptr %70, align 8, !tbaa !35
  %72 = getelementptr inbounds nuw i8, ptr %71, i64 8
  %73 = load ptr, ptr %72, align 8, !tbaa !33
  %.not.i46 = icmp eq ptr %73, null
  br i1 %.not.i46, label %Vec_IntFree.exit47, label %74

74:                                               ; preds = %Vec_IntFree.exit
  tail call void @free(ptr noundef nonnull %73) #25
  br label %Vec_IntFree.exit47

Vec_IntFree.exit47:                               ; preds = %Vec_IntFree.exit, %74
  tail call void @free(ptr noundef nonnull %71) #25
  %75 = getelementptr inbounds nuw i8, ptr %0, i64 104
  %76 = load ptr, ptr %75, align 8, !tbaa !28
  %.not = icmp eq ptr %76, null
  br i1 %.not, label %78, label %77

77:                                               ; preds = %Vec_IntFree.exit47
  tail call void @free(ptr noundef nonnull %76) #25
  store ptr null, ptr %75, align 8, !tbaa !28
  br label %78

78:                                               ; preds = %Vec_IntFree.exit47, %77
  %79 = getelementptr inbounds nuw i8, ptr %0, i64 56
  %80 = load ptr, ptr %79, align 8, !tbaa !26
  %.not26 = icmp eq ptr %80, null
  br i1 %.not26, label %82, label %81

81:                                               ; preds = %78
  tail call void @free(ptr noundef nonnull %80) #25
  store ptr null, ptr %79, align 8, !tbaa !26
  br label %82

82:                                               ; preds = %78, %81
  %83 = getelementptr inbounds nuw i8, ptr %0, i64 80
  %84 = load ptr, ptr %83, align 8, !tbaa !27
  %.not27 = icmp eq ptr %84, null
  br i1 %.not27, label %86, label %85

85:                                               ; preds = %82
  tail call void @free(ptr noundef nonnull %84) #25
  br label %86

86:                                               ; preds = %82, %85
  tail call void @free(ptr noundef nonnull %0) #25
  ret void
}